Certificate:
    Data:
        Version: 3 (0x2)
        Serial Number: 2 (0x2)
    Signature Algorithm: sha1WithRSAEncryption
        Issuer: C=US, O=SwedaKonsult, OU=SwedaKonsult Certificate Authority, CN=SwedaKonsult Root CA
        Validity
            Not Before: Apr 12 21:49:51 2020 GMT
            Not After : Dec 31 23:59:59 2030 GMT
        Subject: C=US, O=SwedaKonsult, OU=SwedaKonsult Certificate Authority, CN=SwedaKonsult Root CA
        Subject Public Key Info:
            Public Key Algorithm: rsaEncryption
                Public-Key: (2048 bit)
                Modulus:
                    00:b7:36:09:92:db:7e:f3:7b:ac:82:f6:49:6f:5b:
                    d4:58:25:96:0b:7f:50:c9:67:09:d4:f3:6f:8f:59:
                    ed:bb:22:35:7b:5a:c8:b5:52:22:e8:87:85:bf:13:
                    cb:d9:73:5f:f7:e0:55:1e:3e:a1:44:af:a1:f2:12:
                    85:10:84:fe:fa:2c:1c:1b:91:fa:6d:2d:7f:dd:9b:
                    04:40:66:17:27:d1:f6:e9:94:a4:21:b5:6b:e2:db:
                    44:91:40:81:a8:bc:09:78:6c:b8:16:e9:96:17:55:
                    5e:c6:91:0b:29:d4:33:24:11:8a:cf:2a:fa:d1:65:
                    2b:82:e6:a9:ad:fd:75:a5:28:4e:db:8c:2a:00:ae:
                    d0:79:a2:6e:9c:c5:6e:b9:04:bf:91:11:88:c3:88:
                    b5:a1:f7:6b:81:09:a9:ea:7f:44:58:e3:60:2a:6b:
                    3b:1f:81:07:36:04:63:aa:4c:52:46:ba:76:c4:ec:
                    25:8d:53:44:83:e1:aa:11:b1:0a:92:a4:ba:97:e9:
                    c5:e7:ad:1b:7d:a4:9d:65:ac:34:29:ef:be:7e:46:
                    05:46:c1:bf:a5:a8:b1:c7:d0:3e:de:38:e7:a2:83:
                    cb:71:2c:cc:4b:b2:3b:42:9e:39:68:39:d2:09:a5:
                    2b:1d:48:2d:d0:1b:97:63:e8:01:10:05:3a:bd:6b:
                    ab:e5
                Exponent: 65537 (0x10001)
        X509v3 extensions:
            X509v3 Key Usage: critical
                Certificate Sign, CRL Sign
            X509v3 Basic Constraints: critical
                CA:TRUE
            X509v3 Subject Key Identifier: 
                F8:88:1C:F1:D6:D7:13:1B:5D:15:78:83:C4:71:FA:D4:1A:F4:77:D5
            X509v3 Authority Key Identifier: 
                keyid:F8:88:1C:F1:D6:D7:13:1B:5D:15:78:83:C4:71:FA:D4:1A:F4:77:D5

    Signature Algorithm: sha1WithRSAEncryption
         03:57:5a:1f:7d:10:cb:f0:45:df:aa:4f:ba:17:7e:88:8c:13:
         43:09:b8:ac:07:50:be:5e:76:bb:23:33:64:a5:0e:64:a1:90:
         f9:e1:da:e0:c8:26:60:b6:3c:ba:25:e6:4a:87:1b:7e:0a:14:
         fe:b4:54:61:20:cb:dc:dd:55:27:46:e7:c1:5d:6a:4b:6d:56:
         d7:7f:8d:c3:1f:29:77:ff:b5:1f:e1:9c:1d:fb:0c:0b:ad:8f:
         ee:d3:7a:3e:4d:09:34:cd:6c:dd:3e:ee:99:ab:f9:8c:1f:f5:
         b4:f2:b1:cf:d9:7d:e2:19:fe:40:3f:2b:0e:33:0b:8b:6f:ab:
         3e:f8:3c:69:df:d3:d0:df:0d:9d:1f:52:c3:57:eb:ae:e1:e9:
         20:f7:81:18:5c:86:34:6a:cc:96:c6:ca:e2:05:c1:69:ea:9d:
         5d:df:72:11:21:80:00:57:37:40:13:92:c7:a5:84:f1:3d:10:
         0b:1c:b5:0a:c3:e8:e9:71:85:4b:e5:36:60:ea:69:68:82:b3:
         ed:fa:62:21:02:91:b1:86:61:42:99:d3:2b:a5:85:3b:c5:8e:
         4b:a3:61:e1:4c:d9:25:5a:95:34:62:e0:b7:69:06:90:f8:f3:
         2d:bc:5d:33:2d:3e:4d:b5:af:98:e6:c5:78:4d:b3:d3:53:d0:
         61:1d:e2:36
-----BEGIN CERTIFICATE-----
MIIDvjCCAqagAwIBAgIBAjANBgkqhkiG9w0BAQUFADBwMQswCQYDVQQGEwJVUzEV
MBMGA1UECgwMU3dlZGFLb25zdWx0MSswKQYDVQQLDCJTd2VkYUtvbnN1bHQgQ2Vy
dGlmaWNhdGUgQXV0aG9yaXR5MR0wGwYDVQQDDBRTd2VkYUtvbnN1bHQgUm9vdCBD
QTAeFw0yMDA0MTIyMTQ5NTFaFw0zMDEyMzEyMzU5NTlaMHAxCzAJBgNVBAYTAlVT
MRUwEwYDVQQKDAxTd2VkYUtvbnN1bHQxKzApBgNVBAsMIlN3ZWRhS29uc3VsdCBD
ZXJ0aWZpY2F0ZSBBdXRob3JpdHkxHTAbBgNVBAMMFFN3ZWRhS29uc3VsdCBSb290
IENBMIIBIjANBgkqhkiG9w0BAQEFAAOCAQ8AMIIBCgKCAQEAtzYJktt+83usgvZJ
b1vUWCWWC39QyWcJ1PNvj1ntuyI1e1rItVIi6IeFvxPL2XNf9+BVHj6hRK+h8hKF
EIT++iwcG5H6bS1/3ZsEQGYXJ9H26ZSkIbVr4ttEkUCBqLwJeGy4FumWF1VexpEL
KdQzJBGKzyr60WUrguaprf11pShO24wqAK7QeaJunMVuuQS/kRGIw4i1ofdrgQmp
6n9EWONgKms7H4EHNgRjqkxSRrp2xOwljVNEg+GqEbEKkqS6l+nF560bfaSdZaw0
Ke++fkYFRsG/paixx9A+3jjnooPLcSzMS7I7Qp45aDnSCaUrHUgt0BuXY+gBEAU6
vWur5QIDAQABo2MwYTAOBgNVHQ8BAf8EBAMCAQYwDwYDVR0TAQH/BAUwAwEB/zAd
BgNVHQ4EFgQU+Igc8dbXExtdFXiDxHH61Br0d9UwHwYDVR0jBBgwFoAU+Igc8dbX
ExtdFXiDxHH61Br0d9UwDQYJKoZIhvcNAQEFBQADggEBAANXWh99EMvwRd+qT7oX
foiME0MJuKwHUL5edrsjM2SlDmShkPnh2uDIJmC2PLol5kqHG34KFP60VGEgy9zd
VSdG58FdakttVtd/jcMfKXf/tR/hnB37DAutj+7Tej5NCTTNbN0+7pmr+Ywf9bTy
sc/ZfeIZ/kA/Kw4zC4tvqz74PGnf09DfDZ0fUsNX667h6SD3gRhchjRqzJbGyuIF
wWnqnV3fchEhgABXN0ATkselhPE9EAsctQrD6OlxhUvlNmDqaWiCs+36YiECkbGG
YUKZ0yulhTvFjkujYeFM2SValTRi4LdpBpD48y28XTMtPk21r5jmxXhNs9NT0GEd
4jY=
-----END CERTIFICATE-----
