Certificate:
    Data:
        Version: 3 (0x2)
        Serial Number: 3 (0x3)
    Signature Algorithm: sha1WithRSAEncryption
        Issuer: C=US, O=SwedaKonsult, OU=SwedaKonsult Certificate Authority, CN=SwedaKonsult Root CA
        Validity
            Not Before: Apr 12 21:51:54 2020 GMT
            Not After : Apr 12 21:51:54 2030 GMT
        Subject: C=US, O=SwedaKonsult, OU=SwedaKonsult Certificate Authority, CN=SwedaKonsult TLS CA
        Subject Public Key Info:
            Public Key Algorithm: rsaEncryption
                Public-Key: (2048 bit)
                Modulus:
                    00:b4:85:ef:31:fa:97:f4:04:6b:e8:aa:27:2e:57:
                    99:8e:1a:51:54:05:a1:95:17:90:0b:71:82:62:60:
                    53:bb:69:68:e1:28:0f:50:4f:5e:3a:d6:de:d1:2d:
                    50:35:50:78:7b:53:66:bb:e1:f0:43:6e:b1:30:c7:
                    18:4c:cc:d4:11:60:3c:28:af:3a:0c:58:df:d0:fe:
                    17:73:e9:85:69:15:66:91:c4:5b:5d:62:32:11:15:
                    a0:1b:50:cf:54:7a:97:1b:c4:96:1a:0e:a4:b6:14:
                    5e:8a:47:1f:2a:0b:da:b7:4d:ff:68:2d:3f:68:ef:
                    16:e3:b7:fc:5a:ff:d8:09:be:0a:62:09:66:78:ad:
                    29:81:39:e8:63:e6:47:87:da:63:cd:90:e0:b8:e4:
                    d6:e2:99:31:17:58:1d:32:09:17:6c:27:8f:c3:bc:
                    6f:b2:e3:2d:c0:eb:9f:97:c6:7f:4a:0e:4a:cd:e6:
                    6b:1b:46:fb:f7:db:0b:29:53:ea:55:01:f3:ab:79:
                    0d:14:58:a3:83:05:a7:95:27:aa:b6:a5:bf:d3:ed:
                    39:55:a2:04:29:23:0b:2a:80:96:ef:b2:85:d7:55:
                    cc:4d:08:d4:04:aa:9e:0a:e6:59:5d:a6:88:82:7c:
                    e3:56:9c:bd:6c:69:1a:9e:cb:4c:61:d0:52:ef:f4:
                    4a:73
                Exponent: 65537 (0x10001)
        X509v3 extensions:
            X509v3 Key Usage: critical
                Certificate Sign, CRL Sign
            X509v3 Basic Constraints: critical
                CA:TRUE, pathlen:0
            X509v3 Subject Key Identifier: 
                FA:74:EA:FC:A3:CD:4B:FE:51:C7:90:48:42:E4:6A:06:C4:48:F6:49
            X509v3 Authority Key Identifier: 
                keyid:F8:88:1C:F1:D6:D7:13:1B:5D:15:78:83:C4:71:FA:D4:1A:F4:77:D5

            Authority Information Access: 
                CA Issuers - URI:http://www.swedakonsult.com/ca/root-ca.cer

            X509v3 CRL Distribution Points: 

                Full Name:
                  URI:http://www.swedakonsult.com/ca/root-ca.crl

    Signature Algorithm: sha1WithRSAEncryption
         1c:2c:1b:10:e5:29:65:12:2e:3e:82:69:5b:89:26:8d:fc:29:
         99:bd:a0:fe:b0:11:a9:92:dd:f5:6c:f6:a6:54:1c:c1:6f:f0:
         6f:4a:c1:1a:2c:df:18:f5:12:02:83:d0:b9:88:bd:28:c2:bf:
         9d:8f:76:eb:14:bd:ac:e8:f5:be:a7:98:f9:e9:b8:ff:ab:49:
         07:23:b1:1b:05:89:75:e5:c3:60:ac:67:63:94:ef:da:48:1f:
         7f:9f:7d:37:fe:c7:a3:6d:30:e1:4f:35:7a:43:00:7a:86:75:
         eb:67:46:7a:bf:c3:0d:af:26:62:53:58:c4:84:15:f5:8b:b7:
         2a:20:8e:2c:e2:ca:bd:d0:dc:0e:49:8c:5d:c9:6e:57:8d:6f:
         c0:bc:76:73:42:52:20:d5:8d:1b:0c:10:17:28:b8:0f:b9:76:
         9b:59:99:31:91:1f:14:d2:ff:48:87:e0:b9:7c:7a:fe:34:67:
         1c:96:9c:a7:3c:ca:30:9b:49:cb:fb:34:d6:7e:2e:87:8e:d1:
         38:e4:2f:f5:16:58:80:c2:61:c6:33:e8:88:8c:7d:0d:ea:57:
         f5:b8:ca:42:97:49:af:60:f7:9e:69:bf:75:f5:88:fe:65:bd:
         93:9c:04:57:63:91:9e:5e:45:ee:60:a0:9f:e4:48:ab:ec:3d:
         fd:d6:53:6b
-----BEGIN CERTIFICATE-----
MIIERzCCAy+gAwIBAgIBAzANBgkqhkiG9w0BAQUFADBwMQswCQYDVQQGEwJVUzEV
MBMGA1UECgwMU3dlZGFLb25zdWx0MSswKQYDVQQLDCJTd2VkYUtvbnN1bHQgQ2Vy
dGlmaWNhdGUgQXV0aG9yaXR5MR0wGwYDVQQDDBRTd2VkYUtvbnN1bHQgUm9vdCBD
QTAeFw0yMDA0MTIyMTUxNTRaFw0zMDA0MTIyMTUxNTRaMG8xCzAJBgNVBAYTAlVT
MRUwEwYDVQQKDAxTd2VkYUtvbnN1bHQxKzApBgNVBAsMIlN3ZWRhS29uc3VsdCBD
ZXJ0aWZpY2F0ZSBBdXRob3JpdHkxHDAaBgNVBAMME1N3ZWRhS29uc3VsdCBUTFMg
Q0EwggEiMA0GCSqGSIb3DQEBAQUAA4IBDwAwggEKAoIBAQC0he8x+pf0BGvoqicu
V5mOGlFUBaGVF5ALcYJiYFO7aWjhKA9QT1461t7RLVA1UHh7U2a74fBDbrEwxxhM
zNQRYDworzoMWN/Q/hdz6YVpFWaRxFtdYjIRFaAbUM9UepcbxJYaDqS2FF6KRx8q
C9q3Tf9oLT9o7xbjt/xa/9gJvgpiCWZ4rSmBOehj5keH2mPNkOC45NbimTEXWB0y
CRdsJ4/DvG+y4y3A65+Xxn9KDkrN5msbRvv32wspU+pVAfOreQ0UWKODBaeVJ6q2
pb/T7TlVogQpIwsqgJbvsoXXVcxNCNQEqp4K5lldpoiCfONWnL1saRqey0xh0FLv
9EpzAgMBAAGjgewwgekwDgYDVR0PAQH/BAQDAgEGMBIGA1UdEwEB/wQIMAYBAf8C
AQAwHQYDVR0OBBYEFPp06vyjzUv+UceQSELkagbESPZJMB8GA1UdIwQYMBaAFPiI
HPHW1xMbXRV4g8Rx+tQa9HfVMEYGCCsGAQUFBwEBBDowODA2BggrBgEFBQcwAoYq
aHR0cDovL3d3dy5zd2VkYWtvbnN1bHQuY29tL2NhL3Jvb3QtY2EuY2VyMDsGA1Ud
HwQ0MDIwMKAuoCyGKmh0dHA6Ly93d3cuc3dlZGFrb25zdWx0LmNvbS9jYS9yb290
LWNhLmNybDANBgkqhkiG9w0BAQUFAAOCAQEAHCwbEOUpZRIuPoJpW4kmjfwpmb2g
/rARqZLd9Wz2plQcwW/wb0rBGizfGPUSAoPQuYi9KMK/nY926xS9rOj1vqeY+em4
/6tJByOxGwWJdeXDYKxnY5Tv2kgff599N/7Ho20w4U81ekMAeoZ162dGer/DDa8m
YlNYxIQV9Yu3KiCOLOLKvdDcDkmMXcluV41vwLx2c0JSINWNGwwQFyi4D7l2m1mZ
MZEfFNL/SIfguXx6/jRnHJacpzzKMJtJy/s01n4uh47ROOQv9RZYgMJhxjPoiIx9
DepX9bjKQpdJr2D3nmm/dfWI/mW9k5wEV2ORnl5F7mCgn+RIq+w9/dZTaw==
-----END CERTIFICATE-----
